; Function Attrs: nounwind uwtable
define internal noundef i32 @json_cfg_encode_number_precision(ptr noundef %0) #0 {
  %2 = alloca [64 x i8], align 16
  %3 = tail call fastcc ptr @json_arg_init(ptr noundef %0, i32 noundef 1)
  %4 = getelementptr inbounds nuw i8, ptr %3, i64 1340
  call void @llvm.lifetime.start.p0(i64 64, ptr nonnull %2) #12
  %5 = tail call i32 @lua_type(ptr noundef %0, i32 noundef 1) #12
  %6 = icmp eq i32 %5, 0
  br i1 %6, label %._crit_edge.i, label %7

._crit_edge.i:                                    ; preds = %1
  %.pre.i = load i32, ptr %4, align 4, !tbaa !21
  br label %json_integer_option.exit

7:                                                ; preds = %1
  %8 = tail call i64 @luaL_checkinteger(ptr noundef %0, i32 noundef 1) #12
  %9 = trunc i64 %8 to i32
  %10 = call i32 (ptr, i64, ptr, ...) @snprintf(ptr noundef nonnull dereferenceable(1) %2, i64 noundef 64, ptr noundef nonnull @.str.96, i32 noundef 1, i32 noundef 14) #12
  %11 = add i32 %9, -15
  %or.cond.i = icmp ult i32 %11, -14
  br i1 %or.cond.i, label %12, label %14

12:                                               ; preds = %7
  %13 = call i32 @luaL_argerror(ptr noundef %0, i32 noundef 1, ptr noundef nonnull %2) #12
  br label %14

14:                                               ; preds = %12, %7
  store i32 %9, ptr %4, align 4, !tbaa !21
  br label %json_integer_option.exit

json_integer_option.exit:                         ; preds = %._crit_edge.i, %14
  %15 = phi i32 [ %.pre.i, %._crit_edge.i ], [ %9, %14 ]
  %16 = sext i32 %15 to i64
  call void @lua_pushinteger(ptr noundef %0, i64 noundef %16) #12
  call void @llvm.lifetime.end.p0(i64 64, ptr nonnull %2) #12
  ret i32 1
}